target datalayout = "e-m:e-p270:32:32-p271:32:32-p272:64:64-i64:64-i128:128-f80:128-n8:16:32:64-S128"
target triple = "x86_64-pc-linux-gnu"

%struct.H5FD_multi_t = type { %struct.H5FD_t, %struct.H5FD_multi_fapl_t, [7 x i64], [7 x ptr], [7 x i64], i32, ptr }
%struct.H5FD_t = type { i64, ptr, i64, i32, i64, i64, i64, i64, i64, i8 }
%struct.H5FD_multi_fapl_t = type { [7 x i32], [7 x i64], [7 x ptr], [7 x i64], i8 }

@.str.1 = private unnamed_addr constant [103 x i8] c"generated/home/dtcxzyw/WorkSpace/Projects/compilers/llvm-opt-benchmark/bench/hdf5/hdf5/src/H5FDmulti.c\00", align 1
@H5_libinit_g = external global i8, align 1
@H5_libterm_g = external global i8, align 1
@H5E_ERR_CLS_g = external global i64, align 8
@H5E_INTERNAL_g = external global i64, align 8
@H5E_BADVALUE_g = external global i64, align 8
@__func__.H5FD_multi_get_handle = private unnamed_addr constant [22 x i8] c"H5FD_multi_get_handle\00", align 1
@.str.39 = private unnamed_addr constant [37 x i8] c"can't get data type for multi driver\00", align 1
@.str.40 = private unnamed_addr constant [26 x i8] c"data type is out of range\00", align 1

; Function Attrs: nounwind uwtable
define internal i32 @H5FD_multi_get_handle(ptr noundef %0, i64 noundef %1, ptr noundef %2) #0 {
  %4 = alloca i32, align 4
  %5 = alloca ptr, align 8
  %6 = alloca i64, align 8
  %7 = alloca ptr, align 8
  %8 = alloca ptr, align 8
  %9 = alloca i32, align 4
  %10 = alloca i32, align 4
  %11 = alloca i32, align 4
  store ptr %0, ptr %5, align 8, !tbaa !3
  store i64 %1, ptr %6, align 8, !tbaa !12
  store ptr %2, ptr %7, align 8, !tbaa !40
  call void @llvm.lifetime.start.p0(i64 8, ptr %8) #9
  %12 = load ptr, ptr %5, align 8, !tbaa !3
  store ptr %12, ptr %8, align 8, !tbaa !8
  call void @llvm.lifetime.start.p0(i64 4, ptr %9) #9
  call void @llvm.lifetime.start.p0(i64 4, ptr %10) #9
  %13 = load i64, ptr %6, align 8, !tbaa !12
  %14 = call i32 @H5Pget_multi_type(i64 noundef %13, ptr noundef %9)
  %15 = icmp slt i32 %14, 0
  br i1 %15, label %16, label %78

16:                                               ; preds = %3
  br label %17

17:                                               ; preds = %16
  %18 = load i8, ptr @H5_libinit_g, align 1, !tbaa !22, !range !24, !noundef !25
  %19 = trunc i8 %18 to i1
  br i1 %19, label %24, label %20

20:                                               ; preds = %17
  %21 = load i8, ptr @H5_libterm_g, align 1, !tbaa !22, !range !24, !noundef !25
  %22 = trunc i8 %21 to i1
  %23 = xor i1 %22, true
  br label %24

24:                                               ; preds = %20, %17
  %25 = phi i1 [ false, %17 ], [ %23, %20 ]
  %26 = xor i1 %25, true
  %27 = xor i1 %26, true
  %28 = zext i1 %27 to i32
  %29 = sext i32 %28 to i64
  %30 = call i64 @llvm.expect.i64(i64 %29, i64 0)
  %31 = icmp ne i64 %30, 0
  br i1 %31, label %32, label %34

32:                                               ; preds = %24
  %33 = call i32 @H5open()
  br label %35

34:                                               ; preds = %24
  br label %35

35:                                               ; preds = %34, %32
  %36 = load i64, ptr @H5E_ERR_CLS_g, align 8, !tbaa !12
  %37 = load i8, ptr @H5_libinit_g, align 1, !tbaa !22, !range !24, !noundef !25
  %38 = trunc i8 %37 to i1
  br i1 %38, label %43, label %39

39:                                               ; preds = %35
  %40 = load i8, ptr @H5_libterm_g, align 1, !tbaa !22, !range !24, !noundef !25
  %41 = trunc i8 %40 to i1
  %42 = xor i1 %41, true
  br label %43

43:                                               ; preds = %39, %35
  %44 = phi i1 [ false, %35 ], [ %42, %39 ]
  %45 = xor i1 %44, true
  %46 = xor i1 %45, true
  %47 = zext i1 %46 to i32
  %48 = sext i32 %47 to i64
  %49 = call i64 @llvm.expect.i64(i64 %48, i64 0)
  %50 = icmp ne i64 %49, 0
  br i1 %50, label %51, label %53

51:                                               ; preds = %43
  %52 = call i32 @H5open()
  br label %54

53:                                               ; preds = %43
  br label %54

54:                                               ; preds = %53, %51
  %55 = load i64, ptr @H5E_INTERNAL_g, align 8, !tbaa !12
  %56 = load i8, ptr @H5_libinit_g, align 1, !tbaa !22, !range !24, !noundef !25
  %57 = trunc i8 %56 to i1
  br i1 %57, label %62, label %58

58:                                               ; preds = %54
  %59 = load i8, ptr @H5_libterm_g, align 1, !tbaa !22, !range !24, !noundef !25
  %60 = trunc i8 %59 to i1
  %61 = xor i1 %60, true
  br label %62

62:                                               ; preds = %58, %54
  %63 = phi i1 [ false, %54 ], [ %61, %58 ]
  %64 = xor i1 %63, true
  %65 = xor i1 %64, true
  %66 = zext i1 %65 to i32
  %67 = sext i32 %66 to i64
  %68 = call i64 @llvm.expect.i64(i64 %67, i64 0)
  %69 = icmp ne i64 %68, 0
  br i1 %69, label %70, label %72

70:                                               ; preds = %62
  %71 = call i32 @H5open()
  br label %73

72:                                               ; preds = %62
  br label %73

73:                                               ; preds = %72, %70
  %74 = load i64, ptr @H5E_BADVALUE_g, align 8, !tbaa !12
  %75 = call i32 (i64, ptr, ptr, i32, i64, i64, i64, ptr, ...) @H5Epush2(i64 noundef 0, ptr noundef @.str.1, ptr noundef @__func__.H5FD_multi_get_handle, i32 noundef 1516, i64 noundef %36, i64 noundef %55, i64 noundef %74, ptr noundef @.str.39)
  store i32 -1, ptr %4, align 4
  store i32 1, ptr %11, align 4
  br label %168

76:                                               ; No predecessors!
  br label %77

77:                                               ; preds = %76
  br label %78

78:                                               ; preds = %77, %3
  %79 = load i32, ptr %9, align 4, !tbaa !10
  %80 = icmp slt i32 %79, 0
  br i1 %80, label %84, label %81

81:                                               ; preds = %78
  %82 = load i32, ptr %9, align 4, !tbaa !10
  %83 = icmp sge i32 %82, 7
  br i1 %83, label %84, label %146

84:                                               ; preds = %81, %78
  br label %85

85:                                               ; preds = %84
  %86 = load i8, ptr @H5_libinit_g, align 1, !tbaa !22, !range !24, !noundef !25
  %87 = trunc i8 %86 to i1
  br i1 %87, label %92, label %88

88:                                               ; preds = %85
  %89 = load i8, ptr @H5_libterm_g, align 1, !tbaa !22, !range !24, !noundef !25
  %90 = trunc i8 %89 to i1
  %91 = xor i1 %90, true
  br label %92

92:                                               ; preds = %88, %85
  %93 = phi i1 [ false, %85 ], [ %91, %88 ]
  %94 = xor i1 %93, true
  %95 = xor i1 %94, true
  %96 = zext i1 %95 to i32
  %97 = sext i32 %96 to i64
  %98 = call i64 @llvm.expect.i64(i64 %97, i64 0)
  %99 = icmp ne i64 %98, 0
  br i1 %99, label %100, label %102

100:                                              ; preds = %92
  %101 = call i32 @H5open()
  br label %103

102:                                              ; preds = %92
  br label %103

103:                                              ; preds = %102, %100
  %104 = load i64, ptr @H5E_ERR_CLS_g, align 8, !tbaa !12
  %105 = load i8, ptr @H5_libinit_g, align 1, !tbaa !22, !range !24, !noundef !25
  %106 = trunc i8 %105 to i1
  br i1 %106, label %111, label %107

107:                                              ; preds = %103
  %108 = load i8, ptr @H5_libterm_g, align 1, !tbaa !22, !range !24, !noundef !25
  %109 = trunc i8 %108 to i1
  %110 = xor i1 %109, true
  br label %111

111:                                              ; preds = %107, %103
  %112 = phi i1 [ false, %103 ], [ %110, %107 ]
  %113 = xor i1 %112, true
  %114 = xor i1 %113, true
  %115 = zext i1 %114 to i32
  %116 = sext i32 %115 to i64
  %117 = call i64 @llvm.expect.i64(i64 %116, i64 0)
  %118 = icmp ne i64 %117, 0
  br i1 %118, label %119, label %121

119:                                              ; preds = %111
  %120 = call i32 @H5open()
  br label %122

121:                                              ; preds = %111
  br label %122

122:                                              ; preds = %121, %119
  %123 = load i64, ptr @H5E_INTERNAL_g, align 8, !tbaa !12
  %124 = load i8, ptr @H5_libinit_g, align 1, !tbaa !22, !range !24, !noundef !25
  %125 = trunc i8 %124 to i1
  br i1 %125, label %130, label %126

126:                                              ; preds = %122
  %127 = load i8, ptr @H5_libterm_g, align 1, !tbaa !22, !range !24, !noundef !25
  %128 = trunc i8 %127 to i1
  %129 = xor i1 %128, true
  br label %130

130:                                              ; preds = %126, %122
  %131 = phi i1 [ false, %122 ], [ %129, %126 ]
  %132 = xor i1 %131, true
  %133 = xor i1 %132, true
  %134 = zext i1 %133 to i32
  %135 = sext i32 %134 to i64
  %136 = call i64 @llvm.expect.i64(i64 %135, i64 0)
  %137 = icmp ne i64 %136, 0
  br i1 %137, label %138, label %140

138:                                              ; preds = %130
  %139 = call i32 @H5open()
  br label %141

140:                                              ; preds = %130
  br label %141

141:                                              ; preds = %140, %138
  %142 = load i64, ptr @H5E_BADVALUE_g, align 8, !tbaa !12
  %143 = call i32 (i64, ptr, ptr, i32, i64, i64, i64, ptr, ...) @H5Epush2(i64 noundef 0, ptr noundef @.str.1, ptr noundef @__func__.H5FD_multi_get_handle, i32 noundef 1518, i64 noundef %104, i64 noundef %123, i64 noundef %142, ptr noundef @.str.40)
  store i32 -1, ptr %4, align 4
  store i32 1, ptr %11, align 4
  br label %168

144:                                              ; No predecessors!
  br label %145

145:                                              ; preds = %144
  br label %146

146:                                              ; preds = %145, %81
  %147 = load ptr, ptr %8, align 8, !tbaa !8
  %148 = getelementptr inbounds nuw %struct.H5FD_multi_t, ptr %147, i32 0, i32 1
  %149 = getelementptr inbounds nuw %struct.H5FD_multi_fapl_t, ptr %148, i32 0, i32 0
  %150 = load i32, ptr %9, align 4, !tbaa !10
  %151 = sext i32 %150 to i64
  %152 = getelementptr inbounds [7 x i32], ptr %149, i64 0, i64 %151
  %153 = load i32, ptr %152, align 4, !tbaa !10
  store i32 %153, ptr %10, align 4, !tbaa !10
  %154 = load i32, ptr %10, align 4, !tbaa !10
  %155 = icmp eq i32 0, %154
  br i1 %155, label %156, label %158

156:                                              ; preds = %146
  %157 = load i32, ptr %9, align 4, !tbaa !10
  store i32 %157, ptr %10, align 4, !tbaa !10
  br label %158

158:                                              ; preds = %156, %146
  %159 = load ptr, ptr %8, align 8, !tbaa !8
  %160 = getelementptr inbounds nuw %struct.H5FD_multi_t, ptr %159, i32 0, i32 3
  %161 = load i32, ptr %10, align 4, !tbaa !10
  %162 = sext i32 %161 to i64
  %163 = getelementptr inbounds [7 x ptr], ptr %160, i64 0, i64 %162
  %164 = load ptr, ptr %163, align 8, !tbaa !3
  %165 = load i64, ptr %6, align 8, !tbaa !12
  %166 = load ptr, ptr %7, align 8, !tbaa !40
  %167 = call i32 @H5FDget_vfd_handle(ptr noundef %164, i64 noundef %165, ptr noundef %166)
  store i32 %167, ptr %4, align 4
  store i32 1, ptr %11, align 4
  br label %168

168:                                              ; preds = %158, %141, %73
  call void @llvm.lifetime.end.p0(i64 4, ptr %10) #9
  call void @llvm.lifetime.end.p0(i64 4, ptr %9) #9
  call void @llvm.lifetime.end.p0(i64 8, ptr %8) #9
  %169 = load i32, ptr %4, align 4
  ret i32 %169
}