; Function Attrs: nounwind uwtable
define internal i32 @H5FD_multi_get_handle(ptr noundef readonly captures(none) %0, i64 noundef %1, ptr noundef %2) #0 {
  %4 = alloca i32, align 4
  call void @llvm.lifetime.start.p0(i64 4, ptr nonnull %4) #15
  %5 = call i32 @H5Pget_multi_type(i64 noundef %1, ptr noundef nonnull %4) #15
  %6 = icmp slt i32 %5, 0
  br i1 %6, label %7, label %36

7:                                                ; preds = %3
  %8 = load i8, ptr @H5_libinit_g, align 1, !tbaa !18, !range !20, !noundef !21
  %9 = trunc nuw i8 %8 to i1
  %10 = load i8, ptr @H5_libterm_g, align 1, !range !20
  %11 = trunc nuw i8 %10 to i1
  %12 = select i1 %9, i1 true, i1 %11
  br i1 %12, label %15, label %13, !prof !22

13:                                               ; preds = %7
  %14 = call i32 @H5open() #15
  %.pre15 = load i8, ptr @H5_libinit_g, align 1, !tbaa !18, !range !20
  %.pre16 = load i8, ptr @H5_libterm_g, align 1, !range !20
  br label %15

15:                                               ; preds = %7, %13
  %16 = phi i8 [ %10, %7 ], [ %.pre16, %13 ]
  %17 = phi i8 [ %8, %7 ], [ %.pre15, %13 ]
  %18 = load i64, ptr @H5E_ERR_CLS_g, align 8, !tbaa !23
  %19 = trunc nuw i8 %17 to i1
  %20 = trunc nuw i8 %16 to i1
  %21 = select i1 %19, i1 true, i1 %20
  br i1 %21, label %24, label %22, !prof !22

22:                                               ; preds = %15
  %23 = call i32 @H5open() #15
  %.pre17 = load i8, ptr @H5_libinit_g, align 1, !tbaa !18, !range !20
  %.pre18 = load i8, ptr @H5_libterm_g, align 1, !range !20
  br label %24

24:                                               ; preds = %15, %22
  %25 = phi i8 [ %16, %15 ], [ %.pre18, %22 ]
  %26 = phi i8 [ %17, %15 ], [ %.pre17, %22 ]
  %27 = load i64, ptr @H5E_INTERNAL_g, align 8, !tbaa !23
  %28 = trunc nuw i8 %26 to i1
  %29 = trunc nuw i8 %25 to i1
  %30 = select i1 %28, i1 true, i1 %29
  br i1 %30, label %33, label %31, !prof !22

31:                                               ; preds = %24
  %32 = call i32 @H5open() #15
  br label %33

33:                                               ; preds = %24, %31
  %34 = load i64, ptr @H5E_BADVALUE_g, align 8, !tbaa !23
  %35 = call i32 (i64, ptr, ptr, i32, i64, i64, i64, ptr, ...) @H5Epush2(i64 noundef 0, ptr noundef nonnull @.str.1, ptr noundef nonnull @__func__.H5FD_multi_get_handle, i32 noundef 1516, i64 noundef %18, i64 noundef %27, i64 noundef %34, ptr noundef nonnull @.str.39) #15
  br label %78

36:                                               ; preds = %3
  %37 = load i32, ptr %4, align 4, !tbaa !3
  %or.cond = icmp ugt i32 %37, 6
  br i1 %or.cond, label %38, label %67

38:                                               ; preds = %36
  %39 = load i8, ptr @H5_libinit_g, align 1, !tbaa !18, !range !20, !noundef !21
  %40 = trunc nuw i8 %39 to i1
  %41 = load i8, ptr @H5_libterm_g, align 1, !range !20
  %42 = trunc nuw i8 %41 to i1
  %43 = select i1 %40, i1 true, i1 %42
  br i1 %43, label %46, label %44, !prof !22

44:                                               ; preds = %38
  %45 = call i32 @H5open() #15
  %.pre = load i8, ptr @H5_libinit_g, align 1, !tbaa !18, !range !20
  %.pre12 = load i8, ptr @H5_libterm_g, align 1, !range !20
  br label %46

46:                                               ; preds = %38, %44
  %47 = phi i8 [ %41, %38 ], [ %.pre12, %44 ]
  %48 = phi i8 [ %39, %38 ], [ %.pre, %44 ]
  %49 = load i64, ptr @H5E_ERR_CLS_g, align 8, !tbaa !23
  %50 = trunc nuw i8 %48 to i1
  %51 = trunc nuw i8 %47 to i1
  %52 = select i1 %50, i1 true, i1 %51
  br i1 %52, label %55, label %53, !prof !22

53:                                               ; preds = %46
  %54 = call i32 @H5open() #15
  %.pre13 = load i8, ptr @H5_libinit_g, align 1, !tbaa !18, !range !20
  %.pre14 = load i8, ptr @H5_libterm_g, align 1, !range !20
  br label %55

55:                                               ; preds = %46, %53
  %56 = phi i8 [ %47, %46 ], [ %.pre14, %53 ]
  %57 = phi i8 [ %48, %46 ], [ %.pre13, %53 ]
  %58 = load i64, ptr @H5E_INTERNAL_g, align 8, !tbaa !23
  %59 = trunc nuw i8 %57 to i1
  %60 = trunc nuw i8 %56 to i1
  %61 = select i1 %59, i1 true, i1 %60
  br i1 %61, label %64, label %62, !prof !22

62:                                               ; preds = %55
  %63 = call i32 @H5open() #15
  br label %64

64:                                               ; preds = %55, %62
  %65 = load i64, ptr @H5E_BADVALUE_g, align 8, !tbaa !23
  %66 = call i32 (i64, ptr, ptr, i32, i64, i64, i64, ptr, ...) @H5Epush2(i64 noundef 0, ptr noundef nonnull @.str.1, ptr noundef nonnull @__func__.H5FD_multi_get_handle, i32 noundef 1518, i64 noundef %49, i64 noundef %58, i64 noundef %65, ptr noundef nonnull @.str.40) #15
  br label %78

67:                                               ; preds = %36
  %68 = getelementptr inbounds nuw i8, ptr %0, i64 80
  %69 = zext nneg i32 %37 to i64
  %70 = getelementptr inbounds nuw [7 x i32], ptr %68, i64 0, i64 %69
  %71 = load i32, ptr %70, align 4, !tbaa !3
  %72 = icmp eq i32 %71, 0
  %spec.select = select i1 %72, i32 %37, i32 %71
  %73 = getelementptr inbounds nuw i8, ptr %0, i64 344
  %74 = sext i32 %spec.select to i64
  %75 = getelementptr inbounds [7 x ptr], ptr %73, i64 0, i64 %74
  %76 = load ptr, ptr %75, align 8, !tbaa !15
  %77 = call i32 @H5FDget_vfd_handle(ptr noundef %76, i64 noundef %1, ptr noundef %2) #15
  br label %78

78:                                               ; preds = %67, %64, %33
  %.09 = phi i32 [ -1, %33 ], [ -1, %64 ], [ %77, %67 ]
  call void @llvm.lifetime.end.p0(i64 4, ptr nonnull %4) #15
  ret i32 %.09
}